; Function Attrs: null_pointer_is_valid sspstrong uwtable
define noundef ptr @stat_tap_find_table(ptr noundef readonly captures(none) %0, ptr noundef %1) local_unnamed_addr #0 {
  %3 = getelementptr inbounds nuw i8, ptr %0, i64 104
  %4 = load ptr, ptr %3, align 8
  %5 = icmp eq ptr %4, null
  br i1 %5, label %.loopexit, label %.preheader

.preheader:                                       ; preds = %2
  %6 = getelementptr inbounds nuw i8, ptr %4, i64 8
  %7 = load i32, ptr %6, align 8
  %.not13 = icmp eq i32 %7, 0
  br i1 %.not13, label %.loopexit, label %.lr.ph

8:                                                ; preds = %.lr.ph
  %indvars.iv.next = add nuw nsw i64 %indvars.iv, 1
  %9 = load ptr, ptr %3, align 8
  %10 = getelementptr inbounds nuw i8, ptr %9, i64 8
  %11 = load i32, ptr %10, align 8
  %12 = zext i32 %11 to i64
  %13 = icmp samesign ult i64 %indvars.iv.next, %12
  br i1 %13, label %.lr.ph, label %.loopexit, !llvm.loop !9

.lr.ph:                                           ; preds = %.preheader, %8
  %indvars.iv = phi i64 [ %indvars.iv.next, %8 ], [ 0, %.preheader ]
  %14 = phi ptr [ %9, %8 ], [ %4, %.preheader ]
  %15 = load ptr, ptr %14, align 8
  %16 = getelementptr ptr, ptr %15, i64 %indvars.iv
  %17 = load ptr, ptr %16, align 8
  %18 = load ptr, ptr %17, align 8
  %19 = tail call i32 @g_strcmp0(ptr noundef %18, ptr noundef %1)
  %.not = icmp eq i32 %19, 0
  br i1 %.not, label %.loopexit, label %8

.loopexit:                                        ; preds = %.lr.ph, %8, %.preheader, %2
  %.0 = phi ptr [ null, %2 ], [ null, %.preheader ], [ %17, %.lr.ph ], [ null, %8 ]
  ret ptr %.0
}